; Function Attrs: nounwind uwtable
define ptr @l_Lake_Package_configTargets(ptr noundef %0, ptr noundef %1) local_unnamed_addr #0 {
  %3 = getelementptr inbounds nuw i8, ptr %1, i64 88
  %4 = load ptr, ptr %3, align 8, !tbaa !4
  %5 = ptrtoint ptr %4 to i64
  %6 = and i64 %5, 1
  %.not = icmp eq i64 %6, 0
  br i1 %.not, label %7, label %lean_nat_lt.exit.thread

7:                                                ; preds = %2
  %.val.i = load i32, ptr %4, align 4, !tbaa !8
  %8 = icmp sgt i32 %.val.i, 0
  br i1 %8, label %9, label %11, !prof !13

9:                                                ; preds = %7
  %10 = add nuw i32 %.val.i, 1
  store i32 %10, ptr %4, align 4, !tbaa !8
  br label %lean_nat_lt.exit

11:                                               ; preds = %7
  %.not.i50 = icmp eq i32 %.val.i, 0
  br i1 %.not.i50, label %lean_nat_lt.exit, label %12

12:                                               ; preds = %11
  tail call void @lean_inc_ref_cold(ptr noundef nonnull %4) #3
  br label %lean_nat_lt.exit

lean_nat_lt.exit:                                 ; preds = %9, %11, %12
  %13 = getelementptr i8, ptr %4, i64 8
  %.val = load i64, ptr %13, align 8, !tbaa !14
  %.mask57 = and i64 %.val, 9223372036854775807
  %.not53 = icmp eq i64 %.mask57, 0
  br i1 %.not53, label %lean_dec.exit33, label %34

lean_nat_lt.exit.thread:                          ; preds = %2
  %14 = getelementptr i8, ptr %4, i64 8
  %.val52 = load i64, ptr %14, align 8, !tbaa !14
  %.mask = and i64 %.val52, 9223372036854775807
  %.not54 = icmp eq i64 %.mask, 0
  br i1 %.not54, label %lean_dec.exit32, label %lean_dec.exit27

lean_dec.exit33:                                  ; preds = %lean_nat_lt.exit
  %15 = load i32, ptr %4, align 4, !tbaa !8
  %16 = icmp sgt i32 %15, 1
  br i1 %16, label %17, label %19, !prof !13

17:                                               ; preds = %lean_dec.exit33
  %18 = add nsw i32 %15, -1
  store i32 %18, ptr %4, align 4, !tbaa !8
  br label %lean_dec.exit32

19:                                               ; preds = %lean_dec.exit33
  %.not.i34 = icmp eq i32 %15, 0
  br i1 %.not.i34, label %lean_dec.exit32, label %20

20:                                               ; preds = %19
  tail call void @lean_dec_ref_cold(ptr noundef nonnull %4) #3
  br label %lean_dec.exit32

lean_dec.exit32:                                  ; preds = %lean_nat_lt.exit.thread, %20, %19, %17
  %21 = ptrtoint ptr %1 to i64
  %22 = and i64 %21, 1
  %.not55 = icmp eq i64 %22, 0
  br i1 %.not55, label %23, label %lean_dec.exit31

23:                                               ; preds = %lean_dec.exit32
  %24 = load i32, ptr %1, align 4, !tbaa !8
  %25 = icmp sgt i32 %24, 1
  br i1 %25, label %26, label %28, !prof !13

26:                                               ; preds = %23
  %27 = add nsw i32 %24, -1
  store i32 %27, ptr %1, align 4, !tbaa !8
  br label %lean_dec.exit31

28:                                               ; preds = %23
  %.not.i36 = icmp eq i32 %24, 0
  br i1 %.not.i36, label %lean_dec.exit31, label %29

29:                                               ; preds = %28
  tail call void @lean_dec_ref_cold(ptr noundef nonnull %1) #3
  br label %lean_dec.exit31

lean_dec.exit31:                                  ; preds = %29, %28, %26, %lean_dec.exit32
  %30 = load ptr, ptr @l_Lake_Package_configTargets___closed__1, align 8, !tbaa !4
  br label %lean_dec.exit

lean_dec.exit27:                                  ; preds = %lean_nat_lt.exit.thread
  %31 = and i64 %.val52, 9223372036854775807
  %32 = load ptr, ptr @l_Lake_Package_configTargets___closed__1, align 8, !tbaa !4
  %33 = tail call ptr @l_Array_foldlMUnsafe_fold___at_Lake_Package_configTargets___spec__1(ptr noundef %0, ptr noundef nonnull %1, ptr noundef nonnull %4, i64 noundef 0, i64 noundef %31, ptr noundef %32)
  br label %lean_dec.exit

34:                                               ; preds = %lean_nat_lt.exit
  %35 = and i64 %.val, 9223372036854775807
  %36 = load ptr, ptr @l_Lake_Package_configTargets___closed__1, align 8, !tbaa !4
  %37 = tail call ptr @l_Array_foldlMUnsafe_fold___at_Lake_Package_configTargets___spec__1(ptr noundef %0, ptr noundef nonnull %1, ptr noundef nonnull %4, i64 noundef 0, i64 noundef %35, ptr noundef %36)
  %38 = load i32, ptr %4, align 4, !tbaa !8
  %39 = icmp sgt i32 %38, 1
  br i1 %39, label %40, label %42, !prof !13

40:                                               ; preds = %34
  %41 = add nsw i32 %38, -1
  store i32 %41, ptr %4, align 4, !tbaa !8
  br label %lean_dec.exit

42:                                               ; preds = %34
  %.not.i46 = icmp eq i32 %38, 0
  br i1 %.not.i46, label %lean_dec.exit, label %43

43:                                               ; preds = %42
  tail call void @lean_dec_ref_cold(ptr noundef nonnull %4) #3
  br label %lean_dec.exit

lean_dec.exit:                                    ; preds = %lean_dec.exit27, %40, %42, %43, %lean_dec.exit31
  %.0 = phi ptr [ %30, %lean_dec.exit31 ], [ %37, %43 ], [ %37, %42 ], [ %37, %40 ], [ %33, %lean_dec.exit27 ]
  ret ptr %.0
}